; Function Attrs: cold nounwind optsize uwtable
define internal i32 @avs_decode_init(ptr noundef %0) #0 {
  %2 = getelementptr inbounds nuw i8, ptr %0, i64 32
  %3 = load ptr, ptr %2, align 8, !tbaa !4
  %4 = tail call ptr @av_frame_alloc() #4
  store ptr %4, ptr %3, align 8, !tbaa !27
  %.not = icmp eq ptr %4, null
  br i1 %.not, label %8, label %5

5:                                                ; preds = %1
  %6 = getelementptr inbounds nuw i8, ptr %0, i64 136
  store i32 11, ptr %6, align 8, !tbaa !30
  %7 = tail call i32 @ff_set_dimensions(ptr noundef nonnull %0, i32 noundef 318, i32 noundef 198) #4
  br label %8

8:                                                ; preds = %1, %5
  %.0 = phi i32 [ %7, %5 ], [ -12, %1 ]
  ret i32 %.0
}